ARM GAS  C:\Users\KRISTI~1\AppData\Local\Temp\cc5AT8AM.s 			page 1


   1              		.syntax unified
   2              		.cpu cortex-m3
   3              		.fpu softvfp
   4              		.eabi_attribute 20, 1
   5              		.eabi_attribute 21, 1
   6              		.eabi_attribute 23, 3
   7              		.eabi_attribute 24, 1
   8              		.eabi_attribute 25, 1
   9              		.eabi_attribute 26, 1
  10              		.eabi_attribute 30, 1
  11              		.eabi_attribute 34, 1
  12              		.eabi_attribute 18, 4
  13              		.thumb
  14              		.syntax unified
  15              		.file	"DCControl.c"
  16              		.text
  17              	.Ltext0:
  18              		.cfi_sections	.debug_frame
  19              		.section	.text.driveForwards,"ax",%progbits
  20              		.align	2
  21              		.global	driveForwards
  22              		.thumb
  23              		.thumb_func
  24              		.type	driveForwards, %function
  25              	driveForwards:
  26              	.LFB63:
  27              		.file 1 "DCControl.c"
   1:DCControl.c   **** /* ========================================
   2:DCControl.c   ****  *
   3:DCControl.c   ****  * Copyright YOUR COMPANY, THE YEAR
   4:DCControl.c   ****  * All Rights Reserved
   5:DCControl.c   ****  * UNPUBLISHED, LICENSED SOFTWARE.
   6:DCControl.c   ****  *
   7:DCControl.c   ****  * CONFIDENTIAL AND PROPRIETARY INFORMATION
   8:DCControl.c   ****  * WHICH IS THE PROPERTY OF your company.
   9:DCControl.c   ****  *
  10:DCControl.c   ****  * ========================================
  11:DCControl.c   **** */
  12:DCControl.c   **** 
  13:DCControl.c   **** #include "project.h"
  14:DCControl.c   **** #include "DCControl.h"
  15:DCControl.c   **** #include <stdint.h>
  16:DCControl.c   **** 
  17:DCControl.c   **** uint8_t compare = 20;
  18:DCControl.c   **** 
  19:DCControl.c   **** void driveForwards()
  20:DCControl.c   **** {
  28              		.loc 1 20 0
  29              		.cfi_startproc
  30              		@ args = 0, pretend = 0, frame = 0
  31              		@ frame_needed = 0, uses_anonymous_args = 0
  32 0000 08B5     		push	{r3, lr}
  33              		.cfi_def_cfa_offset 8
  34              		.cfi_offset 3, -8
  35              		.cfi_offset 14, -4
  21:DCControl.c   ****     UART_1_PutString("Set direction: forwards\r\n");
  36              		.loc 1 21 0
ARM GAS  C:\Users\KRISTI~1\AppData\Local\Temp\cc5AT8AM.s 			page 2


  37 0002 0748     		ldr	r0, .L3
  38 0004 FFF7FEFF 		bl	UART_1_PutString
  39              	.LVL0:
  22:DCControl.c   ****     PWM_DC_WriteCompare(compare);
  40              		.loc 1 22 0
  41 0008 064B     		ldr	r3, .L3+4
  42 000a 1878     		ldrb	r0, [r3]	@ zero_extendqisi2
  43 000c FFF7FEFF 		bl	PWM_DC_WriteCompare
  44              	.LVL1:
  23:DCControl.c   ****     Pin_1_7_Write(0);
  45              		.loc 1 23 0
  46 0010 0020     		movs	r0, #0
  47 0012 FFF7FEFF 		bl	Pin_1_7_Write
  48              	.LVL2:
  24:DCControl.c   ****     Pin_1_6_Write(1);
  49              		.loc 1 24 0
  50 0016 0120     		movs	r0, #1
  51 0018 FFF7FEFF 		bl	Pin_1_6_Write
  52              	.LVL3:
  53 001c 08BD     		pop	{r3, pc}
  54              	.L4:
  55 001e 00BF     		.align	2
  56              	.L3:
  57 0020 00000000 		.word	.LC0
  58 0024 00000000 		.word	.LANCHOR0
  59              		.cfi_endproc
  60              	.LFE63:
  61              		.size	driveForwards, .-driveForwards
  62              		.section	.text.driveBackwards,"ax",%progbits
  63              		.align	2
  64              		.global	driveBackwards
  65              		.thumb
  66              		.thumb_func
  67              		.type	driveBackwards, %function
  68              	driveBackwards:
  69              	.LFB64:
  25:DCControl.c   **** }
  26:DCControl.c   **** 
  27:DCControl.c   **** void driveBackwards()
  28:DCControl.c   **** {
  70              		.loc 1 28 0
  71              		.cfi_startproc
  72              		@ args = 0, pretend = 0, frame = 0
  73              		@ frame_needed = 0, uses_anonymous_args = 0
  74 0000 08B5     		push	{r3, lr}
  75              		.cfi_def_cfa_offset 8
  76              		.cfi_offset 3, -8
  77              		.cfi_offset 14, -4
  29:DCControl.c   ****     UART_1_PutString("Set direction: backwards\r\n");
  78              		.loc 1 29 0
  79 0002 0748     		ldr	r0, .L7
  80 0004 FFF7FEFF 		bl	UART_1_PutString
  81              	.LVL4:
  30:DCControl.c   ****     PWM_DC_WriteCompare(compare);
  82              		.loc 1 30 0
  83 0008 064B     		ldr	r3, .L7+4
  84 000a 1878     		ldrb	r0, [r3]	@ zero_extendqisi2
ARM GAS  C:\Users\KRISTI~1\AppData\Local\Temp\cc5AT8AM.s 			page 3


  85 000c FFF7FEFF 		bl	PWM_DC_WriteCompare
  86              	.LVL5:
  31:DCControl.c   ****     Pin_1_7_Write(1);
  87              		.loc 1 31 0
  88 0010 0120     		movs	r0, #1
  89 0012 FFF7FEFF 		bl	Pin_1_7_Write
  90              	.LVL6:
  32:DCControl.c   ****     Pin_1_6_Write(0);
  91              		.loc 1 32 0
  92 0016 0020     		movs	r0, #0
  93 0018 FFF7FEFF 		bl	Pin_1_6_Write
  94              	.LVL7:
  95 001c 08BD     		pop	{r3, pc}
  96              	.L8:
  97 001e 00BF     		.align	2
  98              	.L7:
  99 0020 1C000000 		.word	.LC1
 100 0024 00000000 		.word	.LANCHOR0
 101              		.cfi_endproc
 102              	.LFE64:
 103              		.size	driveBackwards, .-driveBackwards
 104              		.section	.text.stopDriving,"ax",%progbits
 105              		.align	2
 106              		.global	stopDriving
 107              		.thumb
 108              		.thumb_func
 109              		.type	stopDriving, %function
 110              	stopDriving:
 111              	.LFB65:
  33:DCControl.c   **** }
  34:DCControl.c   **** 
  35:DCControl.c   **** void stopDriving()
  36:DCControl.c   **** {
 112              		.loc 1 36 0
 113              		.cfi_startproc
 114              		@ args = 0, pretend = 0, frame = 0
 115              		@ frame_needed = 0, uses_anonymous_args = 0
 116 0000 08B5     		push	{r3, lr}
 117              		.cfi_def_cfa_offset 8
 118              		.cfi_offset 3, -8
 119              		.cfi_offset 14, -4
  37:DCControl.c   ****     UART_1_PutString("Stop\r\n");
 120              		.loc 1 37 0
 121 0002 0548     		ldr	r0, .L11
 122 0004 FFF7FEFF 		bl	UART_1_PutString
 123              	.LVL8:
  38:DCControl.c   ****     Pin_1_7_Write(0);
 124              		.loc 1 38 0
 125 0008 0020     		movs	r0, #0
 126 000a FFF7FEFF 		bl	Pin_1_7_Write
 127              	.LVL9:
  39:DCControl.c   ****     Pin_1_6_Write(0);
 128              		.loc 1 39 0
 129 000e 0020     		movs	r0, #0
 130 0010 FFF7FEFF 		bl	Pin_1_6_Write
 131              	.LVL10:
 132 0014 08BD     		pop	{r3, pc}
ARM GAS  C:\Users\KRISTI~1\AppData\Local\Temp\cc5AT8AM.s 			page 4


 133              	.L12:
 134 0016 00BF     		.align	2
 135              	.L11:
 136 0018 38000000 		.word	.LC2
 137              		.cfi_endproc
 138              	.LFE65:
 139              		.size	stopDriving, .-stopDriving
 140              		.section	.text.decreaseSpeed,"ax",%progbits
 141              		.align	2
 142              		.global	decreaseSpeed
 143              		.thumb
 144              		.thumb_func
 145              		.type	decreaseSpeed, %function
 146              	decreaseSpeed:
 147              	.LFB66:
  40:DCControl.c   **** }
  41:DCControl.c   **** 
  42:DCControl.c   **** void decreaseSpeed()
  43:DCControl.c   **** {
 148              		.loc 1 43 0
 149              		.cfi_startproc
 150              		@ args = 0, pretend = 0, frame = 0
 151              		@ frame_needed = 0, uses_anonymous_args = 0
 152 0000 08B5     		push	{r3, lr}
 153              		.cfi_def_cfa_offset 8
 154              		.cfi_offset 3, -8
 155              		.cfi_offset 14, -4
  44:DCControl.c   ****     UART_1_PutString("Decreasing speed\r\n");
 156              		.loc 1 44 0
 157 0002 0648     		ldr	r0, .L16
 158 0004 FFF7FEFF 		bl	UART_1_PutString
 159              	.LVL11:
  45:DCControl.c   ****     if(compare > 0) 
 160              		.loc 1 45 0
 161 0008 054B     		ldr	r3, .L16+4
 162 000a 1878     		ldrb	r0, [r3]	@ zero_extendqisi2
 163 000c 20B1     		cbz	r0, .L13
  46:DCControl.c   ****     {
  47:DCControl.c   ****         compare -= 2;
 164              		.loc 1 47 0
 165 000e 0238     		subs	r0, r0, #2
 166 0010 C0B2     		uxtb	r0, r0
 167 0012 1870     		strb	r0, [r3]
  48:DCControl.c   ****         PWM_DC_WriteCompare(compare);
 168              		.loc 1 48 0
 169 0014 FFF7FEFF 		bl	PWM_DC_WriteCompare
 170              	.LVL12:
 171              	.L13:
 172 0018 08BD     		pop	{r3, pc}
 173              	.L17:
 174 001a 00BF     		.align	2
 175              	.L16:
 176 001c 40000000 		.word	.LC3
 177 0020 00000000 		.word	.LANCHOR0
 178              		.cfi_endproc
 179              	.LFE66:
 180              		.size	decreaseSpeed, .-decreaseSpeed
ARM GAS  C:\Users\KRISTI~1\AppData\Local\Temp\cc5AT8AM.s 			page 5


 181              		.section	.text.increaseSpeed,"ax",%progbits
 182              		.align	2
 183              		.global	increaseSpeed
 184              		.thumb
 185              		.thumb_func
 186              		.type	increaseSpeed, %function
 187              	increaseSpeed:
 188              	.LFB67:
  49:DCControl.c   ****     }
  50:DCControl.c   **** }
  51:DCControl.c   **** 
  52:DCControl.c   **** void increaseSpeed()
  53:DCControl.c   **** {
 189              		.loc 1 53 0
 190              		.cfi_startproc
 191              		@ args = 0, pretend = 0, frame = 0
 192              		@ frame_needed = 0, uses_anonymous_args = 0
 193 0000 08B5     		push	{r3, lr}
 194              		.cfi_def_cfa_offset 8
 195              		.cfi_offset 3, -8
 196              		.cfi_offset 14, -4
  54:DCControl.c   ****     UART_1_PutString("Increasing speed\r\n");
 197              		.loc 1 54 0
 198 0002 0648     		ldr	r0, .L21
 199 0004 FFF7FEFF 		bl	UART_1_PutString
 200              	.LVL13:
  55:DCControl.c   ****     if(compare < 100)
 201              		.loc 1 55 0
 202 0008 054B     		ldr	r3, .L21+4
 203 000a 1878     		ldrb	r0, [r3]	@ zero_extendqisi2
 204 000c 6328     		cmp	r0, #99
 205 000e 04D8     		bhi	.L18
  56:DCControl.c   ****     {
  57:DCControl.c   ****         compare += 2;
 206              		.loc 1 57 0
 207 0010 0230     		adds	r0, r0, #2
 208 0012 C0B2     		uxtb	r0, r0
 209 0014 1870     		strb	r0, [r3]
  58:DCControl.c   ****         PWM_DC_WriteCompare(compare);
 210              		.loc 1 58 0
 211 0016 FFF7FEFF 		bl	PWM_DC_WriteCompare
 212              	.LVL14:
 213              	.L18:
 214 001a 08BD     		pop	{r3, pc}
 215              	.L22:
 216              		.align	2
 217              	.L21:
 218 001c 54000000 		.word	.LC4
 219 0020 00000000 		.word	.LANCHOR0
 220              		.cfi_endproc
 221              	.LFE67:
 222              		.size	increaseSpeed, .-increaseSpeed
 223              		.global	compare
 224              		.data
 225              		.set	.LANCHOR0,. + 0
 226              		.type	compare, %object
 227              		.size	compare, 1
ARM GAS  C:\Users\KRISTI~1\AppData\Local\Temp\cc5AT8AM.s 			page 6


 228              	compare:
 229 0000 14       		.byte	20
 230              		.section	.rodata.str1.4,"aMS",%progbits,1
 231              		.align	2
 232              	.LC0:
 233 0000 53657420 		.ascii	"Set direction: forwards\015\012\000"
 233      64697265 
 233      6374696F 
 233      6E3A2066 
 233      6F727761 
 234 001a 0000     		.space	2
 235              	.LC1:
 236 001c 53657420 		.ascii	"Set direction: backwards\015\012\000"
 236      64697265 
 236      6374696F 
 236      6E3A2062 
 236      61636B77 
 237 0037 00       		.space	1
 238              	.LC2:
 239 0038 53746F70 		.ascii	"Stop\015\012\000"
 239      0D0A00
 240 003f 00       		.space	1
 241              	.LC3:
 242 0040 44656372 		.ascii	"Decreasing speed\015\012\000"
 242      65617369 
 242      6E672073 
 242      70656564 
 242      0D0A00
 243 0053 00       		.space	1
 244              	.LC4:
 245 0054 496E6372 		.ascii	"Increasing speed\015\012\000"
 245      65617369 
 245      6E672073 
 245      70656564 
 245      0D0A00
 246              		.text
 247              	.Letext0:
 248              		.file 2 "c:\\program files (x86)\\cypress\\psoc creator\\4.3\\psoc creator\\import\\gnu\\arm\\5.4.
 249              		.file 3 "c:\\program files (x86)\\cypress\\psoc creator\\4.3\\psoc creator\\import\\gnu\\arm\\5.4.
 250              		.file 4 "Generated_Source\\PSoC5/core_cm3.h"
 251              		.file 5 "Generated_Source\\PSoC5/UART_1.h"
 252              		.file 6 "Generated_Source\\PSoC5/PWM_DC.h"
 253              		.file 7 "Generated_Source\\PSoC5/Pin_1_7.h"
 254              		.file 8 "Generated_Source\\PSoC5/Pin_1_6.h"