ARM GAS  C:\Users\KRISTI~1\AppData\Local\Temp\cc9tTJQh.s 			page 1


   1              		.syntax unified
   2              		.cpu cortex-m3
   3              		.fpu softvfp
   4              		.eabi_attribute 20, 1
   5              		.eabi_attribute 21, 1
   6              		.eabi_attribute 23, 3
   7              		.eabi_attribute 24, 1
   8              		.eabi_attribute 25, 1
   9              		.eabi_attribute 26, 1
  10              		.eabi_attribute 30, 1
  11              		.eabi_attribute 34, 1
  12              		.eabi_attribute 18, 4
  13              		.thumb
  14              		.syntax unified
  15              		.file	"main.c"
  16              		.text
  17              	.Ltext0:
  18              		.cfi_sections	.debug_frame
  19              		.section	.text.main,"ax",%progbits
  20              		.align	2
  21              		.global	main
  22              		.thumb
  23              		.thumb_func
  24              		.type	main, %function
  25              	main:
  26              	.LFB63:
  27              		.file 1 "main.c"
   1:main.c        **** /* ========================================
   2:main.c        ****  *
   3:main.c        ****  * Copyright YOUR COMPANY, THE YEAR
   4:main.c        ****  * All Rights Reserved
   5:main.c        ****  * UNPUBLISHED, LICENSED SOFTWARE.
   6:main.c        ****  *
   7:main.c        ****  * CONFIDENTIAL AND PROPRIETARY INFORMATION
   8:main.c        ****  * WHICH IS THE PROPERTY OF your company.
   9:main.c        ****  * Kristian Gaardsted Bork
  10:main.c        ****  *
  11:main.c        ****  * ========================================
  12:main.c        **** */
  13:main.c        **** #include "project.h"
  14:main.c        **** #include <stdint.h>
  15:main.c        **** 
  16:main.c        **** CY_ISR_PROTO(ISR_UART_rx_handler);
  17:main.c        **** 
  18:main.c        **** void handleByteReceived(uint8_t byteReceived);
  19:main.c        **** 
  20:main.c        **** void turnRight();
  21:main.c        **** void turnLeft();
  22:main.c        **** void middlePos();
  23:main.c        **** 
  24:main.c        **** uint8_t compare = 20;
  25:main.c        **** 
  26:main.c        **** int main(void)
  27:main.c        **** {
  28              		.loc 1 27 0
  29              		.cfi_startproc
  30              		@ Volatile: function does not return.
ARM GAS  C:\Users\KRISTI~1\AppData\Local\Temp\cc9tTJQh.s 			page 2


  31              		@ args = 0, pretend = 0, frame = 0
  32              		@ frame_needed = 0, uses_anonymous_args = 0
  33 0000 08B5     		push	{r3, lr}
  34              		.cfi_def_cfa_offset 8
  35              		.cfi_offset 3, -8
  36              		.cfi_offset 14, -4
  28:main.c        ****     CyGlobalIntEnable; /* Enable global interrupts. */
  37              		.loc 1 28 0
  38              		.syntax unified
  39              	@ 28 "main.c" 1
  40 0002 62B6     		CPSIE   i
  41              	@ 0 "" 2
  29:main.c        ****     isr_uart_rx_StartEx(ISR_UART_rx_handler);
  42              		.loc 1 29 0
  43              		.thumb
  44              		.syntax unified
  45 0004 0548     		ldr	r0, .L4
  46 0006 FFF7FEFF 		bl	isr_uart_rx_StartEx
  47              	.LVL0:
  30:main.c        ****     UART_1_Start();
  48              		.loc 1 30 0
  49 000a FFF7FEFF 		bl	UART_1_Start
  50              	.LVL1:
  31:main.c        ****     PWM_1_Start();
  51              		.loc 1 31 0
  52 000e FFF7FEFF 		bl	PWM_1_Start
  53              	.LVL2:
  32:main.c        **** 
  33:main.c        ****     /* Place your initialization/startup code here (e.g. MyInst_Start()) */
  34:main.c        **** 
  35:main.c        ****     UART_1_PutString("DC-Motor-PWM application started\r\n");
  54              		.loc 1 35 0
  55 0012 0348     		ldr	r0, .L4+4
  56 0014 FFF7FEFF 		bl	UART_1_PutString
  57              	.LVL3:
  58              	.L2:
  59 0018 FEE7     		b	.L2
  60              	.L5:
  61 001a 00BF     		.align	2
  62              	.L4:
  63 001c 00000000 		.word	ISR_UART_rx_handler
  64 0020 00000000 		.word	.LC0
  65              		.cfi_endproc
  66              	.LFE63:
  67              		.size	main, .-main
  68              		.section	.text.turnRight,"ax",%progbits
  69              		.align	2
  70              		.global	turnRight
  71              		.thumb
  72              		.thumb_func
  73              		.type	turnRight, %function
  74              	turnRight:
  75              	.LFB66:
  36:main.c        ****     
  37:main.c        ****     for(;;)
  38:main.c        ****     {
  39:main.c        **** //        PWM_1_WriteCompare(1000);
ARM GAS  C:\Users\KRISTI~1\AppData\Local\Temp\cc9tTJQh.s 			page 3


  40:main.c        **** //        CyDelay(1000);
  41:main.c        **** //        PWM_1_WriteCompare(2000);
  42:main.c        ****     }
  43:main.c        **** }
  44:main.c        **** 
  45:main.c        **** CY_ISR(ISR_UART_rx_handler)
  46:main.c        **** {
  47:main.c        ****     uint8_t bytesToRead = UART_1_GetRxBufferSize();
  48:main.c        ****     while (bytesToRead > 0)
  49:main.c        ****     {
  50:main.c        ****         uint8_t byteReceived = UART_1_ReadRxData();
  51:main.c        ****         UART_1_WriteTxData(byteReceived); // echo back
  52:main.c        ****         
  53:main.c        ****         handleByteReceived(byteReceived);
  54:main.c        ****         
  55:main.c        ****         bytesToRead--;
  56:main.c        ****     }
  57:main.c        **** }
  58:main.c        **** 
  59:main.c        **** void handleByteReceived(uint8_t byteReceived)
  60:main.c        **** {
  61:main.c        ****     switch(byteReceived)
  62:main.c        ****     {
  63:main.c        ****         case '1' :
  64:main.c        ****         {
  65:main.c        ****             turnRight();
  66:main.c        ****             UART_1_PutString("Turn right\r\n");
  67:main.c        ****         }
  68:main.c        ****         break;
  69:main.c        ****         case '2' :
  70:main.c        ****         {
  71:main.c        ****             turnLeft();
  72:main.c        ****             UART_1_PutString("Turn left\r\n");
  73:main.c        ****         }
  74:main.c        ****         break;
  75:main.c        ****         case '3' :
  76:main.c        ****         {
  77:main.c        ****             middlePos();
  78:main.c        ****             UART_1_PutString("Middle position\r\n");
  79:main.c        ****         }
  80:main.c        ****         default :
  81:main.c        ****         {
  82:main.c        ****             // nothing
  83:main.c        ****         }
  84:main.c        ****         break;
  85:main.c        ****     }
  86:main.c        **** }
  87:main.c        **** 
  88:main.c        **** void turnRight()
  89:main.c        **** {
  76              		.loc 1 89 0
  77              		.cfi_startproc
  78              		@ args = 0, pretend = 0, frame = 0
  79              		@ frame_needed = 0, uses_anonymous_args = 0
  80 0000 08B5     		push	{r3, lr}
  81              		.cfi_def_cfa_offset 8
  82              		.cfi_offset 3, -8
ARM GAS  C:\Users\KRISTI~1\AppData\Local\Temp\cc9tTJQh.s 			page 4


  83              		.cfi_offset 14, -4
  90:main.c        ****     PWM_1_WriteCompare(1000);
  84              		.loc 1 90 0
  85 0002 4FF47A70 		mov	r0, #1000
  86 0006 FFF7FEFF 		bl	PWM_1_WriteCompare
  87              	.LVL4:
  88 000a 08BD     		pop	{r3, pc}
  89              		.cfi_endproc
  90              	.LFE66:
  91              		.size	turnRight, .-turnRight
  92              		.section	.text.turnLeft,"ax",%progbits
  93              		.align	2
  94              		.global	turnLeft
  95              		.thumb
  96              		.thumb_func
  97              		.type	turnLeft, %function
  98              	turnLeft:
  99              	.LFB67:
  91:main.c        **** }
  92:main.c        **** 
  93:main.c        **** void turnLeft()
  94:main.c        **** {
 100              		.loc 1 94 0
 101              		.cfi_startproc
 102              		@ args = 0, pretend = 0, frame = 0
 103              		@ frame_needed = 0, uses_anonymous_args = 0
 104 0000 08B5     		push	{r3, lr}
 105              		.cfi_def_cfa_offset 8
 106              		.cfi_offset 3, -8
 107              		.cfi_offset 14, -4
  95:main.c        ****     PWM_1_WriteCompare(2000);
 108              		.loc 1 95 0
 109 0002 4FF4FA60 		mov	r0, #2000
 110 0006 FFF7FEFF 		bl	PWM_1_WriteCompare
 111              	.LVL5:
 112 000a 08BD     		pop	{r3, pc}
 113              		.cfi_endproc
 114              	.LFE67:
 115              		.size	turnLeft, .-turnLeft
 116              		.section	.text.middlePos,"ax",%progbits
 117              		.align	2
 118              		.global	middlePos
 119              		.thumb
 120              		.thumb_func
 121              		.type	middlePos, %function
 122              	middlePos:
 123              	.LFB68:
  96:main.c        **** }
  97:main.c        **** 
  98:main.c        **** void middlePos()
  99:main.c        **** {
 124              		.loc 1 99 0
 125              		.cfi_startproc
 126              		@ args = 0, pretend = 0, frame = 0
 127              		@ frame_needed = 0, uses_anonymous_args = 0
 128 0000 08B5     		push	{r3, lr}
 129              		.cfi_def_cfa_offset 8
ARM GAS  C:\Users\KRISTI~1\AppData\Local\Temp\cc9tTJQh.s 			page 5


 130              		.cfi_offset 3, -8
 131              		.cfi_offset 14, -4
 100:main.c        ****     PWM_1_WriteCompare(1500);
 132              		.loc 1 100 0
 133 0002 40F2DC50 		movw	r0, #1500
 134 0006 FFF7FEFF 		bl	PWM_1_WriteCompare
 135              	.LVL6:
 136 000a 08BD     		pop	{r3, pc}
 137              		.cfi_endproc
 138              	.LFE68:
 139              		.size	middlePos, .-middlePos
 140              		.section	.text.handleByteReceived,"ax",%progbits
 141              		.align	2
 142              		.global	handleByteReceived
 143              		.thumb
 144              		.thumb_func
 145              		.type	handleByteReceived, %function
 146              	handleByteReceived:
 147              	.LFB65:
  60:main.c        ****     switch(byteReceived)
 148              		.loc 1 60 0
 149              		.cfi_startproc
 150              		@ args = 0, pretend = 0, frame = 0
 151              		@ frame_needed = 0, uses_anonymous_args = 0
 152              	.LVL7:
 153 0000 08B5     		push	{r3, lr}
 154              		.cfi_def_cfa_offset 8
 155              		.cfi_offset 3, -8
 156              		.cfi_offset 14, -4
  61:main.c        ****     {
 157              		.loc 1 61 0
 158 0002 3228     		cmp	r0, #50
 159 0004 09D0     		beq	.L14
 160 0006 3328     		cmp	r0, #51
 161 0008 0DD0     		beq	.L15
 162 000a 3128     		cmp	r0, #49
 163 000c 10D1     		bne	.L12
  65:main.c        ****             UART_1_PutString("Turn right\r\n");
 164              		.loc 1 65 0
 165 000e FFF7FEFF 		bl	turnRight
 166              	.LVL8:
  66:main.c        ****         }
 167              		.loc 1 66 0
 168 0012 0848     		ldr	r0, .L18
 169 0014 FFF7FEFF 		bl	UART_1_PutString
 170              	.LVL9:
  68:main.c        ****         case '2' :
 171              		.loc 1 68 0
 172 0018 08BD     		pop	{r3, pc}
 173              	.LVL10:
 174              	.L14:
  71:main.c        ****             UART_1_PutString("Turn left\r\n");
 175              		.loc 1 71 0
 176 001a FFF7FEFF 		bl	turnLeft
 177              	.LVL11:
  72:main.c        ****         }
 178              		.loc 1 72 0
ARM GAS  C:\Users\KRISTI~1\AppData\Local\Temp\cc9tTJQh.s 			page 6


 179 001e 0648     		ldr	r0, .L18+4
 180 0020 FFF7FEFF 		bl	UART_1_PutString
 181              	.LVL12:
  74:main.c        ****         case '3' :
 182              		.loc 1 74 0
 183 0024 08BD     		pop	{r3, pc}
 184              	.LVL13:
 185              	.L15:
  77:main.c        ****             UART_1_PutString("Middle position\r\n");
 186              		.loc 1 77 0
 187 0026 FFF7FEFF 		bl	middlePos
 188              	.LVL14:
  78:main.c        ****         }
 189              		.loc 1 78 0
 190 002a 0448     		ldr	r0, .L18+8
 191 002c FFF7FEFF 		bl	UART_1_PutString
 192              	.LVL15:
 193              	.L12:
 194 0030 08BD     		pop	{r3, pc}
 195              	.L19:
 196 0032 00BF     		.align	2
 197              	.L18:
 198 0034 24000000 		.word	.LC1
 199 0038 34000000 		.word	.LC2
 200 003c 40000000 		.word	.LC3
 201              		.cfi_endproc
 202              	.LFE65:
 203              		.size	handleByteReceived, .-handleByteReceived
 204              		.section	.text.ISR_UART_rx_handler,"ax",%progbits
 205              		.align	2
 206              		.global	ISR_UART_rx_handler
 207              		.thumb
 208              		.thumb_func
 209              		.type	ISR_UART_rx_handler, %function
 210              	ISR_UART_rx_handler:
 211              	.LFB64:
  46:main.c        ****     uint8_t bytesToRead = UART_1_GetRxBufferSize();
 212              		.loc 1 46 0
 213              		.cfi_startproc
 214              		@ args = 0, pretend = 0, frame = 0
 215              		@ frame_needed = 0, uses_anonymous_args = 0
 216 0000 38B5     		push	{r3, r4, r5, lr}
 217              		.cfi_def_cfa_offset 16
 218              		.cfi_offset 3, -16
 219              		.cfi_offset 4, -12
 220              		.cfi_offset 5, -8
 221              		.cfi_offset 14, -4
  47:main.c        ****     while (bytesToRead > 0)
 222              		.loc 1 47 0
 223 0002 FFF7FEFF 		bl	UART_1_GetRxBufferSize
 224              	.LVL16:
 225 0006 0446     		mov	r4, r0
 226              	.LVL17:
  48:main.c        ****     {
 227              		.loc 1 48 0
 228 0008 09E0     		b	.L21
 229              	.L22:
ARM GAS  C:\Users\KRISTI~1\AppData\Local\Temp\cc9tTJQh.s 			page 7


 230              	.LBB2:
  50:main.c        ****         UART_1_WriteTxData(byteReceived); // echo back
 231              		.loc 1 50 0
 232 000a FFF7FEFF 		bl	UART_1_ReadRxData
 233              	.LVL18:
 234 000e 0546     		mov	r5, r0
 235              	.LVL19:
  51:main.c        ****         
 236              		.loc 1 51 0
 237 0010 FFF7FEFF 		bl	UART_1_WriteTxData
 238              	.LVL20:
  53:main.c        ****         
 239              		.loc 1 53 0
 240 0014 2846     		mov	r0, r5
 241 0016 FFF7FEFF 		bl	handleByteReceived
 242              	.LVL21:
  55:main.c        ****     }
 243              		.loc 1 55 0
 244 001a 013C     		subs	r4, r4, #1
 245              	.LVL22:
 246 001c E4B2     		uxtb	r4, r4
 247              	.LVL23:
 248              	.L21:
 249              	.LBE2:
  48:main.c        ****     {
 250              		.loc 1 48 0
 251 001e 002C     		cmp	r4, #0
 252 0020 F3D1     		bne	.L22
  57:main.c        **** 
 253              		.loc 1 57 0
 254 0022 38BD     		pop	{r3, r4, r5, pc}
 255              		.cfi_endproc
 256              	.LFE64:
 257              		.size	ISR_UART_rx_handler, .-ISR_UART_rx_handler
 258              		.global	compare
 259              		.data
 260              		.type	compare, %object
 261              		.size	compare, 1
 262              	compare:
 263 0000 14       		.byte	20
 264              		.section	.rodata.str1.4,"aMS",%progbits,1
 265              		.align	2
 266              	.LC0:
 267 0000 44432D4D 		.ascii	"DC-Motor-PWM application started\015\012\000"
 267      6F746F72 
 267      2D50574D 
 267      20617070 
 267      6C696361 
 268 0023 00       		.space	1
 269              	.LC1:
 270 0024 5475726E 		.ascii	"Turn right\015\012\000"
 270      20726967 
 270      68740D0A 
 270      00
 271 0031 000000   		.space	3
 272              	.LC2:
 273 0034 5475726E 		.ascii	"Turn left\015\012\000"
ARM GAS  C:\Users\KRISTI~1\AppData\Local\Temp\cc9tTJQh.s 			page 8


 273      206C6566 
 273      740D0A00 
 274              	.LC3:
 275 0040 4D696464 		.ascii	"Middle position\015\012\000"
 275      6C652070 
 275      6F736974 
 275      696F6E0D 
 275      0A00
 276              		.text
 277              	.Letext0:
 278              		.file 2 "c:\\program files (x86)\\cypress\\psoc creator\\4.3\\psoc creator\\import\\gnu\\arm\\5.4.
 279              		.file 3 "c:\\program files (x86)\\cypress\\psoc creator\\4.3\\psoc creator\\import\\gnu\\arm\\5.4.
 280              		.file 4 "Generated_Source\\PSoC5/core_cm3.h"
 281              		.file 5 "Generated_Source\\PSoC5/isr_uart_rx.h"
 282              		.file 6 "Generated_Source\\PSoC5/UART_1.h"
 283              		.file 7 "Generated_Source\\PSoC5/PWM_1.h"