ARM GAS  C:\Users\KRISTI~1\AppData\Local\Temp\ccvFr4uT.s 			page 1


   1              		.syntax unified
   2              		.cpu cortex-m3
   3              		.fpu softvfp
   4              		.eabi_attribute 20, 1
   5              		.eabi_attribute 21, 1
   6              		.eabi_attribute 23, 3
   7              		.eabi_attribute 24, 1
   8              		.eabi_attribute 25, 1
   9              		.eabi_attribute 26, 1
  10              		.eabi_attribute 30, 1
  11              		.eabi_attribute 34, 1
  12              		.eabi_attribute 18, 4
  13              		.thumb
  14              		.syntax unified
  15              		.file	"main.c"
  16              		.text
  17              	.Ltext0:
  18              		.cfi_sections	.debug_frame
  19              		.section	.text.getDistance,"ax",%progbits
  20              		.align	2
  21              		.global	getDistance
  22              		.thumb
  23              		.thumb_func
  24              		.type	getDistance, %function
  25              	getDistance:
  26              	.LFB65:
  27              		.file 1 "main.c"
   1:main.c        **** /* ========================================
   2:main.c        ****  *
   3:main.c        ****  * Copyright YOUR COMPANY, THE YEAR
   4:main.c        ****  * All Rights Reserved
   5:main.c        ****  * UNPUBLISHED, LICENSED SOFTWARE.
   6:main.c        ****  *
   7:main.c        ****  * CONFIDENTIAL AND PROPRIETARY INFORMATION
   8:main.c        ****  * WHICH IS THE PROPERTY OF your company.
   9:main.c        ****  *
  10:main.c        ****  * ========================================
  11:main.c        **** */
  12:main.c        **** #include "project.h"
  13:main.c        **** #include "stdio.h"
  14:main.c        **** 
  15:main.c        **** CY_ISR_PROTO(ISR_UART_rx_handler);
  16:main.c        **** 
  17:main.c        **** int getDistance();
  18:main.c        **** 
  19:main.c        **** 
  20:main.c        **** int main(void)
  21:main.c        **** {
  22:main.c        ****     CyGlobalIntEnable; /* Enable global interrupts. */
  23:main.c        **** 
  24:main.c        ****     /* Place your initialization/startup code here (e.g. MyInst_Start()) */
  25:main.c        ****     UART_1_Start();
  26:main.c        ****     
  27:main.c        ****     UART_1_PutString("Ultrasonic sensor\r\n");
  28:main.c        ****     
  29:main.c        ****     char buffer[255];
  30:main.c        ****     float cm;
ARM GAS  C:\Users\KRISTI~1\AppData\Local\Temp\ccvFr4uT.s 			page 2


  31:main.c        **** 
  32:main.c        ****     
  33:main.c        ****     for(;;)
  34:main.c        ****     {
  35:main.c        ****         cm = (getDistance()-2.8214)/4.6726;
  36:main.c        ****         float count = getDistance();
  37:main.c        ****         
  38:main.c        ****         snprintf(buffer,255, "The distance for sensor: %.2f cm \n\r", count);
  39:main.c        ****         UART_1_PutString(buffer); 
  40:main.c        ****         
  41:main.c        ****         CyDelay(1000);
  42:main.c        ****     }
  43:main.c        **** }
  44:main.c        **** 
  45:main.c        **** int getDistance()
  46:main.c        **** {
  28              		.loc 1 46 0
  29              		.cfi_startproc
  30              		@ args = 0, pretend = 0, frame = 0
  31              		@ frame_needed = 0, uses_anonymous_args = 0
  32 0000 10B5     		push	{r4, lr}
  33              		.cfi_def_cfa_offset 8
  34              		.cfi_offset 4, -8
  35              		.cfi_offset 14, -4
  36              	.LVL0:
  47:main.c        ****     int counter = 0;
  48:main.c        ****     
  49:main.c        ****     Pin_S1_Trig_Write(0);
  37              		.loc 1 49 0
  38 0002 0020     		movs	r0, #0
  39 0004 FFF7FEFF 		bl	Pin_S1_Trig_Write
  40              	.LVL1:
  50:main.c        ****     CyDelayUs(2);
  41              		.loc 1 50 0
  42 0008 0220     		movs	r0, #2
  43 000a FFF7FEFF 		bl	CyDelayUs
  44              	.LVL2:
  51:main.c        **** 
  52:main.c        ****     Pin_S1_Trig_Write(1);
  45              		.loc 1 52 0
  46 000e 0120     		movs	r0, #1
  47 0010 FFF7FEFF 		bl	Pin_S1_Trig_Write
  48              	.LVL3:
  53:main.c        ****     CyDelayUs(10);
  49              		.loc 1 53 0
  50 0014 0A20     		movs	r0, #10
  51 0016 FFF7FEFF 		bl	CyDelayUs
  52              	.LVL4:
  54:main.c        ****     Pin_S1_Trig_Write(0);
  53              		.loc 1 54 0
  54 001a 0020     		movs	r0, #0
  55 001c FFF7FEFF 		bl	Pin_S1_Trig_Write
  56              	.LVL5:
  57              	.L2:
  55:main.c        **** 
  56:main.c        ****     while(Pin_S1_Echo_Read() != 1) //wait until return pulse starts 
  58              		.loc 1 56 0 discriminator 1
ARM GAS  C:\Users\KRISTI~1\AppData\Local\Temp\ccvFr4uT.s 			page 3


  59 0020 FFF7FEFF 		bl	Pin_S1_Echo_Read
  60              	.LVL6:
  61 0024 0128     		cmp	r0, #1
  62 0026 FBD1     		bne	.L2
  63 0028 0024     		movs	r4, #0
  64 002a 06E0     		b	.L3
  65              	.LVL7:
  66              	.L5:
  57:main.c        ****     {}
  58:main.c        ****     
  59:main.c        ****     while(Pin_S1_Echo_Read() != 0) //wait unit return pulse stops  
  60:main.c        ****     {
  61:main.c        ****         counter++;
  67              		.loc 1 61 0
  68 002c 0134     		adds	r4, r4, #1
  69              	.LVL8:
  62:main.c        ****         CyDelayUs(1);
  70              		.loc 1 62 0
  71 002e 0120     		movs	r0, #1
  72 0030 FFF7FEFF 		bl	CyDelayUs
  73              	.LVL9:
  63:main.c        ****         if (Pin_S1_Echo_Read() == 0)
  74              		.loc 1 63 0
  75 0034 FFF7FEFF 		bl	Pin_S1_Echo_Read
  76              	.LVL10:
  77 0038 20B1     		cbz	r0, .L6
  78              	.LVL11:
  79              	.L3:
  59:main.c        ****     {
  80              		.loc 1 59 0
  81 003a FFF7FEFF 		bl	Pin_S1_Echo_Read
  82              	.LVL12:
  83 003e 0028     		cmp	r0, #0
  84 0040 F4D1     		bne	.L5
  85 0042 10BD     		pop	{r4, pc}
  86              	.LVL13:
  87              	.L6:
  64:main.c        ****         {
  65:main.c        ****             return counter;
  88              		.loc 1 65 0
  89 0044 2046     		mov	r0, r4
  66:main.c        ****             break;
  67:main.c        ****         }
  68:main.c        ****     }
  69:main.c        ****     return 0;
  70:main.c        **** }
  90              		.loc 1 70 0
  91 0046 10BD     		pop	{r4, pc}
  92              		.cfi_endproc
  93              	.LFE65:
  94              		.size	getDistance, .-getDistance
  95              		.global	__aeabi_i2f
  96              		.global	__aeabi_f2d
  97              		.section	.text.main,"ax",%progbits
  98              		.align	2
  99              		.global	main
 100              		.thumb
ARM GAS  C:\Users\KRISTI~1\AppData\Local\Temp\ccvFr4uT.s 			page 4


 101              		.thumb_func
 102              		.type	main, %function
 103              	main:
 104              	.LFB64:
  21:main.c        ****     CyGlobalIntEnable; /* Enable global interrupts. */
 105              		.loc 1 21 0
 106              		.cfi_startproc
 107              		@ args = 0, pretend = 0, frame = 256
 108              		@ frame_needed = 0, uses_anonymous_args = 0
 109 0000 00B5     		push	{lr}
 110              		.cfi_def_cfa_offset 4
 111              		.cfi_offset 14, -4
 112 0002 C3B0     		sub	sp, sp, #268
 113              		.cfi_def_cfa_offset 272
  22:main.c        **** 
 114              		.loc 1 22 0
 115              		.syntax unified
 116              	@ 22 "main.c" 1
 117 0004 62B6     		CPSIE   i
 118              	@ 0 "" 2
  25:main.c        ****     
 119              		.loc 1 25 0
 120              		.thumb
 121              		.syntax unified
 122 0006 FFF7FEFF 		bl	UART_1_Start
 123              	.LVL14:
  27:main.c        ****     
 124              		.loc 1 27 0
 125 000a 0D48     		ldr	r0, .L11
 126 000c FFF7FEFF 		bl	UART_1_PutString
 127              	.LVL15:
 128              	.L9:
 129              	.LBB2:
  35:main.c        ****         float count = getDistance();
 130              		.loc 1 35 0 discriminator 1
 131 0010 FFF7FEFF 		bl	getDistance
 132              	.LVL16:
  36:main.c        ****         
 133              		.loc 1 36 0 discriminator 1
 134 0014 FFF7FEFF 		bl	getDistance
 135              	.LVL17:
 136 0018 FFF7FEFF 		bl	__aeabi_i2f
 137              	.LVL18:
  38:main.c        ****         UART_1_PutString(buffer); 
 138              		.loc 1 38 0 discriminator 1
 139 001c FFF7FEFF 		bl	__aeabi_f2d
 140              	.LVL19:
 141 0020 CDE90001 		strd	r0, [sp]
 142 0024 074A     		ldr	r2, .L11+4
 143 0026 FF21     		movs	r1, #255
 144 0028 02A8     		add	r0, sp, #8
 145 002a FFF7FEFF 		bl	snprintf
 146              	.LVL20:
  39:main.c        ****         
 147              		.loc 1 39 0 discriminator 1
 148 002e 02A8     		add	r0, sp, #8
 149 0030 FFF7FEFF 		bl	UART_1_PutString
ARM GAS  C:\Users\KRISTI~1\AppData\Local\Temp\ccvFr4uT.s 			page 5


 150              	.LVL21:
  41:main.c        ****     }
 151              		.loc 1 41 0 discriminator 1
 152 0034 4FF47A70 		mov	r0, #1000
 153 0038 FFF7FEFF 		bl	CyDelay
 154              	.LVL22:
 155 003c E8E7     		b	.L9
 156              	.L12:
 157 003e 00BF     		.align	2
 158              	.L11:
 159 0040 00000000 		.word	.LC0
 160 0044 14000000 		.word	.LC1
 161              	.LBE2:
 162              		.cfi_endproc
 163              	.LFE64:
 164              		.size	main, .-main
 165              		.section	.rodata.str1.4,"aMS",%progbits,1
 166              		.align	2
 167              	.LC0:
 168 0000 556C7472 		.ascii	"Ultrasonic sensor\015\012\000"
 168      61736F6E 
 168      69632073 
 168      656E736F 
 168      720D0A00 
 169              	.LC1:
 170 0014 54686520 		.ascii	"The distance for sensor: %.2f cm \012\015\000"
 170      64697374 
 170      616E6365 
 170      20666F72 
 170      2073656E 
 171              		.text
 172              	.Letext0:
 173              		.file 2 "c:\\program files (x86)\\cypress\\psoc creator\\4.3\\psoc creator\\import\\gnu\\arm\\5.4.
 174              		.file 3 "c:\\program files (x86)\\cypress\\psoc creator\\4.3\\psoc creator\\import\\gnu\\arm\\5.4.
 175              		.file 4 "Generated_Source\\PSoC5/Pin_S1_Trig.h"
 176              		.file 5 "Generated_Source\\PSoC5/CyLib.h"
 177              		.file 6 "Generated_Source\\PSoC5/Pin_S1_Echo.h"
 178              		.file 7 "c:\\program files (x86)\\cypress\\psoc creator\\4.3\\psoc creator\\import\\gnu\\arm\\5.4.
 179              		.file 8 "Generated_Source\\PSoC5/UART_1.h"
 180              		.file 9 "Generated_Source\\PSoC5/core_cm3.h"